; Function Attrs: mustprogress nounwind uwtable
define internal fastcc void @_ZN4llvm23SmallVectorTemplateBaseIN12_GLOBAL__N_116JumpScopeChecker9GotoScopeELb1EE9push_backES3_(ptr noundef nonnull align 8 dereferenceable(16) %0, i64 %1, i64 %2) unnamed_addr #0 align 2 {
  %4 = tail call noundef i64 @_ZNK4llvm15SmallVectorBaseIjE4sizeEv(ptr noundef nonnull align 8 dereferenceable(16) %0) #12
  %5 = add i64 %4, 1
  %6 = tail call noundef i64 @_ZNK4llvm15SmallVectorBaseIjE8capacityEv(ptr noundef nonnull align 8 dereferenceable(16) %0) #12
  %.not.i.i = icmp ugt i64 %5, %6
  br i1 %.not.i.i, label %7, label %_ZN4llvm23SmallVectorTemplateBaseIN12_GLOBAL__N_116JumpScopeChecker9GotoScopeELb1EE28reserveForParamAndGetAddressERS3_m.exit

7:                                                ; preds = %3
  %8 = getelementptr inbounds i8, ptr %0, i64 16
  tail call void @_ZN4llvm15SmallVectorBaseIjE8grow_podEPvmm(ptr noundef nonnull align 8 dereferenceable(16) %0, ptr noundef nonnull %8, i64 noundef %5, i64 noundef 16) #12
  br label %_ZN4llvm23SmallVectorTemplateBaseIN12_GLOBAL__N_116JumpScopeChecker9GotoScopeELb1EE28reserveForParamAndGetAddressERS3_m.exit

_ZN4llvm23SmallVectorTemplateBaseIN12_GLOBAL__N_116JumpScopeChecker9GotoScopeELb1EE28reserveForParamAndGetAddressERS3_m.exit: ; preds = %3, %7
  %.val.i = load ptr, ptr %0, align 8
  %9 = tail call noundef i64 @_ZNK4llvm15SmallVectorBaseIjE4sizeEv(ptr noundef nonnull align 8 dereferenceable(16) %0) #12
  %10 = getelementptr inbounds %"struct.(anonymous namespace)::JumpScopeChecker::GotoScope", ptr %.val.i, i64 %9
  store i64 %1, ptr %10, align 1
  %.sroa.2.0..sroa_idx = getelementptr inbounds i8, ptr %10, i64 8
  store i64 %2, ptr %.sroa.2.0..sroa_idx, align 1
  %11 = tail call noundef i64 @_ZNK4llvm15SmallVectorBaseIjE4sizeEv(ptr noundef nonnull align 8 dereferenceable(16) %0) #12
  %12 = add i64 %11, 1
  tail call void @_ZN4llvm15SmallVectorBaseIjE8set_sizeEm(ptr noundef nonnull align 8 dereferenceable(16) %0, i64 noundef %12) #12
  ret void
}